; Function Attrs: nounwind uwtable
define dso_local i32 @Curl_cf_tcp_create(ptr noundef writeonly captures(none) initializes((0, 8)) %0, ptr noundef readnone captures(none) %1, ptr noundef readnone captures(none) %2, ptr noundef readonly captures(none) %3, i32 noundef %4) local_unnamed_addr #2 {
  %6 = alloca ptr, align 8
  store ptr null, ptr %6, align 8
  %7 = load ptr, ptr @Curl_ccalloc, align 8
  %8 = tail call ptr %7(i64 noundef 1, i64 noundef 384) #13
  %.not = icmp eq ptr %8, null
  br i1 %.not, label %.thread, label %9

.thread:                                          ; preds = %5
  store ptr null, ptr %0, align 8
  br label %30

9:                                                ; preds = %5
  tail call void @llvm.memset.p0.i64(ptr noundef nonnull align 8 dereferenceable(384) %8, i8 0, i64 384, i1 false)
  %10 = getelementptr inbounds nuw i8, ptr %8, i64 152
  store i32 -1, ptr %10, align 8
  store i32 %4, ptr %8, align 8
  %11 = getelementptr inbounds nuw i8, ptr %8, i64 8
  %12 = getelementptr inbounds nuw i8, ptr %3, i64 4
  %13 = load i32, ptr %12, align 4
  store i32 %13, ptr %11, align 8
  switch i32 %4, label %15 [
    i32 3, label %16
    i32 6, label %14
  ]

14:                                               ; preds = %9
  br label %16

15:                                               ; preds = %9
  br label %16

16:                                               ; preds = %15, %14, %9
  %.sink15.i.i = phi i32 [ 2, %15 ], [ 1, %14 ], [ 1, %9 ]
  %.sink.i.i = phi i32 [ 17, %15 ], [ 0, %14 ], [ 6, %9 ]
  %17 = getelementptr inbounds nuw i8, ptr %8, i64 16
  %18 = getelementptr inbounds nuw i8, ptr %8, i64 12
  store i32 %.sink15.i.i, ptr %18, align 4
  store i32 %.sink.i.i, ptr %17, align 8
  %19 = getelementptr inbounds nuw i8, ptr %3, i64 16
  %20 = load i32, ptr %19, align 8
  %spec.select.i.i = tail call i32 @llvm.umin.i32(i32 %20, i32 128)
  %21 = getelementptr inbounds nuw i8, ptr %8, i64 20
  store i32 %spec.select.i.i, ptr %21, align 4
  %22 = getelementptr inbounds nuw i8, ptr %8, i64 24
  %23 = getelementptr inbounds nuw i8, ptr %3, i64 32
  %24 = load ptr, ptr %23, align 8
  %25 = zext nneg i32 %spec.select.i.i to i64
  tail call void @llvm.memcpy.p0.p0.i64(ptr nonnull align 8 %22, ptr align 2 %24, i64 %25, i1 false)
  %26 = getelementptr inbounds nuw i8, ptr %8, i64 160
  tail call void @Curl_bufq_init(ptr noundef nonnull %26, i64 noundef 65536, i64 noundef 1) #13
  %27 = call i32 @Curl_cf_create(ptr noundef nonnull %6, ptr noundef nonnull @Curl_cft_tcp, ptr noundef nonnull %8) #13
  %.not10 = icmp eq i32 %27, 0
  %28 = load ptr, ptr %6, align 8
  %29 = select i1 %.not10, ptr %28, ptr null
  store ptr %29, ptr %0, align 8
  br i1 %.not10, label %34, label %30

30:                                               ; preds = %.thread, %16
  %31 = phi ptr [ null, %.thread ], [ %28, %16 ]
  %.013 = phi i32 [ 27, %.thread ], [ %27, %16 ]
  %32 = load ptr, ptr @Curl_cfree, align 8
  call void %32(ptr noundef %31) #13
  store ptr null, ptr %6, align 8
  %33 = load ptr, ptr @Curl_cfree, align 8
  call void %33(ptr noundef %8) #13
  br label %34

34:                                               ; preds = %30, %16
  %.014 = phi i32 [ %.013, %30 ], [ 0, %16 ]
  ret i32 %.014
}